; Function Attrs: mustprogress uwtable
define void @_ZN2cv6detail15GCompoundKernel5applyERNS0_16GCompoundContextE(ptr noundef nonnull align 8 dereferenceable(32) %0, ptr noundef nonnull align 8 dereferenceable(48) %1) local_unnamed_addr #3 align 2 {
  %3 = getelementptr inbounds nuw i8, ptr %0, i64 16
  %4 = load ptr, ptr %3, align 8, !tbaa !62
  %.not.i.i = icmp eq ptr %4, null
  br i1 %.not.i.i, label %5, label %_ZNKSt8functionIFvRN2cv6detail16GCompoundContextEEEclES3_.exit

5:                                                ; preds = %2
  tail call void @_ZSt25__throw_bad_function_callv() #22
  unreachable

_ZNKSt8functionIFvRN2cv6detail16GCompoundContextEEEclES3_.exit: ; preds = %2
  %6 = getelementptr inbounds nuw i8, ptr %0, i64 24
  %7 = load ptr, ptr %6, align 8, !tbaa !64
  tail call void %7(ptr noundef nonnull align 8 dereferenceable(32) %0, ptr noundef nonnull align 8 dereferenceable(48) %1)
  ret void
}